; Function Attrs: mustprogress uwtable
define hidden noundef ptr @_ZN7nanogui6Window12button_panelEv(ptr noundef nonnull align 8 dereferenceable(186) %0) local_unnamed_addr #0 align 2 personality ptr @__gxx_personality_v0 {
  %2 = getelementptr inbounds i8, ptr %0, i64 176
  %3 = load ptr, ptr %2, align 8
  %.not = icmp eq ptr %3, null
  br i1 %.not, label %4, label %_ZN7nanogui6Widget10set_layoutEPNS_6LayoutE.exit

4:                                                ; preds = %1
  %5 = tail call noalias noundef nonnull dereferenceable(144) ptr @_Znwm(i64 noundef 144) #13
  invoke void @_ZN7nanogui6WidgetC1EPS0_(ptr noundef nonnull align 8 dereferenceable(140) %5, ptr noundef nonnull %0)
          to label %6 unwind label %17

6:                                                ; preds = %4
  store ptr %5, ptr %2, align 8
  %7 = tail call noalias noundef nonnull dereferenceable(32) ptr @_Znwm(i64 noundef 32) #13
  invoke void @_ZN7nanogui9BoxLayoutC1ENS_11OrientationENS_9AlignmentEii(ptr noundef nonnull align 8 dereferenceable(28) %7, i32 noundef 0, i8 noundef zeroext 1, i32 noundef 0, i32 noundef 4)
          to label %8 unwind label %19

8:                                                ; preds = %6
  %9 = getelementptr inbounds i8, ptr %5, i64 32
  %10 = load ptr, ptr %9, align 8
  %.not.i.i = icmp eq ptr %10, %7
  br i1 %.not.i.i, label %_ZN7nanogui6Widget10set_layoutEPNS_6LayoutE.exit, label %11

11:                                               ; preds = %8
  invoke void @_ZNK7nanogui6Object7inc_refEv(ptr noundef nonnull align 8 dereferenceable(12) %7)
          to label %thread-pre-split.i.i unwind label %14

thread-pre-split.i.i:                             ; preds = %11
  %.pr.i.i = load ptr, ptr %9, align 8
  %.not7.i.i = icmp eq ptr %.pr.i.i, null
  br i1 %.not7.i.i, label %13, label %12

12:                                               ; preds = %thread-pre-split.i.i
  tail call void @_ZNK7nanogui6Object7dec_refEb(ptr noundef nonnull align 8 dereferenceable(12) %.pr.i.i, i1 noundef zeroext true) #12
  br label %13

13:                                               ; preds = %12, %thread-pre-split.i.i
  store ptr %7, ptr %9, align 8
  br label %_ZN7nanogui6Widget10set_layoutEPNS_6LayoutE.exit

14:                                               ; preds = %11
  %15 = landingpad { ptr, i32 }
          catch ptr null
  %16 = extractvalue { ptr, i32 } %15, 0
  tail call void @__clang_call_terminate(ptr %16) #14
  unreachable

17:                                               ; preds = %4
  %18 = landingpad { ptr, i32 }
          cleanup
  br label %22

19:                                               ; preds = %6
  %20 = landingpad { ptr, i32 }
          cleanup
  br label %22

_ZN7nanogui6Widget10set_layoutEPNS_6LayoutE.exit: ; preds = %13, %8, %1
  %21 = load ptr, ptr %2, align 8
  ret ptr %21

22:                                               ; preds = %19, %17
  %.sink = phi ptr [ %7, %19 ], [ %5, %17 ]
  %.pn = phi { ptr, i32 } [ %20, %19 ], [ %18, %17 ]
  tail call void @_ZdlPv(ptr noundef nonnull %.sink) #15
  resume { ptr, i32 } %.pn
}